; Function Attrs: nofree norecurse nosync nounwind memory(read, argmem: readwrite, inaccessiblemem: none) uwtable
define void @convert_channels_short_interleaved(i32 noundef %0, ptr noundef writeonly captures(none) %1, i32 noundef %2, ptr noundef readonly captures(none) %3, i32 noundef %4, i32 noundef %5) local_unnamed_addr #15 {
  %7 = icmp ne i32 %0, %2
  %8 = icmp slt i32 %0, 3
  %or.cond = and i1 %8, %7
  %9 = icmp slt i32 %2, 7
  %or.cond3 = and i1 %9, %or.cond
  br i1 %or.cond3, label %.preheader, label %12

.preheader:                                       ; preds = %6
  %10 = icmp sgt i32 %0, 0
  br i1 %10, label %.lr.ph, label %.loopexit

.lr.ph:                                           ; preds = %.preheader, %.lr.ph
  %.03865 = phi i32 [ %11, %.lr.ph ], [ 0, %.preheader ]
  tail call void @compute_stereo_samples(ptr noundef %1, i32 noundef %2, ptr noundef %3, i32 noundef %4, i32 noundef %5)
  %11 = add nuw nsw i32 %.03865, 1
  %exitcond81.not = icmp eq i32 %11, %0
  br i1 %exitcond81.not, label %.loopexit, label %.lr.ph, !llvm.loop !339

12:                                               ; preds = %6
  %13 = tail call i32 @llvm.smin.i32(i32 %0, i32 %2)
  %14 = icmp sgt i32 %5, 0
  br i1 %14, label %.preheader45.lr.ph, label %.loopexit

.preheader45.lr.ph:                               ; preds = %12
  %15 = icmp sgt i32 %13, 0
  br i1 %15, label %.preheader45.us.preheader, label %.preheader45.lr.ph.split

.preheader45.us.preheader:                        ; preds = %.preheader45.lr.ph
  %16 = add nuw i32 %13, 1
  %smax = tail call i32 @llvm.smax.i32(i32 %0, i32 %16)
  %17 = xor i32 %13, -1
  %18 = add i32 %smax, %17
  %19 = zext i32 %18 to i64
  %20 = shl nuw nsw i64 %19, 1
  %21 = add nuw nsw i64 %20, 2
  %22 = add nsw i32 %13, -1
  %23 = zext nneg i32 %22 to i64
  %24 = add nuw nsw i64 %19, %23
  %25 = shl nuw nsw i64 %24, 1
  %26 = sext i32 %4 to i64
  %wide.trip.count79 = zext nneg i32 %5 to i64
  %wide.trip.count = zext nneg i32 %13 to i64
  %27 = icmp slt i32 %2, %0
  br label %.preheader45.us

.preheader45.us:                                  ; preds = %.preheader45.us.preheader, %._crit_edge.us
  %indvars.iv76 = phi i64 [ 0, %.preheader45.us.preheader ], [ %indvars.iv.next77, %._crit_edge.us ]
  %.03755.us = phi ptr [ %1, %.preheader45.us.preheader ], [ %.2.lcssa.us, %._crit_edge.us ]
  br label %28

._crit_edge.us:                                   ; preds = %.lr.ph52.us.preheader, %..preheader44_crit_edge.us
  %.2.lcssa.us = phi ptr [ %39, %..preheader44_crit_edge.us ], [ %scevgep75, %.lr.ph52.us.preheader ]
  %indvars.iv.next77 = add nuw nsw i64 %indvars.iv76, 1
  %exitcond80.not = icmp eq i64 %indvars.iv.next77, %wide.trip.count79
  br i1 %exitcond80.not, label %.loopexit, label %.preheader45.us, !llvm.loop !340

28:                                               ; preds = %.preheader45.us, %28
  %indvars.iv = phi i64 [ 0, %.preheader45.us ], [ %indvars.iv.next, %28 ]
  %.148.us = phi ptr [ %.03755.us, %.preheader45.us ], [ %39, %28 ]
  %29 = getelementptr inbounds nuw ptr, ptr %3, i64 %indvars.iv
  %30 = load ptr, ptr %29, align 8, !tbaa !53
  %31 = getelementptr float, ptr %30, i64 %indvars.iv76
  %32 = getelementptr float, ptr %31, i64 %26
  %33 = load float, ptr %32, align 4, !tbaa !48
  %34 = fadd float %33, 3.840000e+02
  %35 = bitcast float %34 to i32
  %36 = tail call i32 @llvm.smax.i32(i32 %35, i32 1136623616)
  %37 = tail call i32 @llvm.umin.i32(i32 %36, i32 1136689151)
  %38 = trunc i32 %37 to i16
  %39 = getelementptr i8, ptr %.148.us, i64 2
  store i16 %38, ptr %.148.us, align 2, !tbaa !36
  %indvars.iv.next = add nuw nsw i64 %indvars.iv, 1
  %exitcond73.not = icmp eq i64 %indvars.iv.next, %wide.trip.count
  br i1 %exitcond73.not, label %..preheader44_crit_edge.us, label %28, !llvm.loop !341

..preheader44_crit_edge.us:                       ; preds = %28
  br i1 %27, label %.lr.ph52.us.preheader, label %._crit_edge.us

.lr.ph52.us.preheader:                            ; preds = %..preheader44_crit_edge.us
  tail call void @llvm.memset.p0.i64(ptr noundef nonnull align 2 dereferenceable(1) %39, i8 0, i64 %21, i1 false), !tbaa !36
  %40 = getelementptr i8, ptr %.03755.us, i64 %25
  %scevgep75 = getelementptr i8, ptr %40, i64 4
  br label %._crit_edge.us

.preheader45.lr.ph.split:                         ; preds = %.preheader45.lr.ph
  %41 = icmp sgt i32 %0, 0
  br i1 %41, label %.preheader45.us56.preheader, label %.loopexit

.preheader45.us56.preheader:                      ; preds = %.preheader45.lr.ph.split
  %42 = shl nuw i32 %0, 1
  %43 = zext i32 %42 to i64
  %44 = add nsw i32 %0, -1
  %45 = zext nneg i32 %44 to i64
  %46 = shl nuw nsw i64 %45, 1
  br label %.preheader45.us56

.preheader45.us56:                                ; preds = %.preheader45.us56.preheader, %.preheader45.us56
  %.03755.us57 = phi ptr [ %scevgep, %.preheader45.us56 ], [ %1, %.preheader45.us56.preheader ]
  %.04154.us58 = phi i32 [ %48, %.preheader45.us56 ], [ 0, %.preheader45.us56.preheader ]
  tail call void @llvm.memset.p0.i64(ptr align 2 %.03755.us57, i8 0, i64 %43, i1 false), !tbaa !36
  %47 = getelementptr i8, ptr %.03755.us57, i64 %46
  %scevgep = getelementptr i8, ptr %47, i64 2
  %48 = add nuw nsw i32 %.04154.us58, 1
  %exitcond.not = icmp eq i32 %48, %5
  br i1 %exitcond.not, label %.loopexit, label %.preheader45.us56, !llvm.loop !340

.loopexit:                                        ; preds = %.preheader45.us56, %._crit_edge.us, %.lr.ph, %.preheader45.lr.ph.split, %12, %.preheader
  ret void
}